target datalayout = "e-m:e-p270:32:32-p271:32:32-p272:64:64-i64:64-i128:128-f80:128-n8:16:32:64-S128"
target triple = "x86_64-pc-linux-gnu"

@bio_err = external global ptr, align 8
@.str.186 = private unnamed_addr constant [11 x i8] c"asymmetric\00", align 1
@.str.187 = private unnamed_addr constant [104 x i8] c"Warning: generating random key parameters may take a long time\0Aif the system has a poor entropy source\0A\00", align 1
@.str.188 = private unnamed_addr constant [41 x i8] c"%s: Generating %s key parameters failed\0A\00", align 1

; Function Attrs: nounwind uwtable
define dso_local ptr @app_paramgen(ptr noundef %0, ptr noundef %1) #0 {
  %3 = alloca ptr, align 8
  %4 = alloca ptr, align 8
  %5 = alloca ptr, align 8
  store ptr %0, ptr %3, align 8, !tbaa !143
  store ptr %1, ptr %4, align 8, !tbaa !9
  call void @llvm.lifetime.start.p0(i64 8, ptr %5) #12
  store ptr null, ptr %5, align 8, !tbaa !67
  %6 = call i32 @RAND_status()
  %7 = icmp ne i32 %6, 0
  br i1 %7, label %11, label %8

8:                                                ; preds = %2
  %9 = load ptr, ptr @bio_err, align 8, !tbaa !35
  %10 = call i32 (ptr, ptr, ...) @BIO_printf(ptr noundef %9, ptr noundef @.str.187)
  br label %11

11:                                               ; preds = %8, %2
  %12 = load ptr, ptr %3, align 8, !tbaa !143
  %13 = call i32 @EVP_PKEY_paramgen(ptr noundef %12, ptr noundef %5)
  %14 = icmp sle i32 %13, 0
  br i1 %14, label %15, label %26

15:                                               ; preds = %11
  %16 = load ptr, ptr @bio_err, align 8, !tbaa !35
  %17 = call ptr @opt_getprog()
  %18 = load ptr, ptr %4, align 8, !tbaa !9
  %19 = icmp ne ptr %18, null
  br i1 %19, label %20, label %22

20:                                               ; preds = %15
  %21 = load ptr, ptr %4, align 8, !tbaa !9
  br label %23

22:                                               ; preds = %15
  br label %23

23:                                               ; preds = %22, %20
  %24 = phi ptr [ %21, %20 ], [ @.str.186, %22 ]
  %25 = call i32 (ptr, ptr, ...) @BIO_printf(ptr noundef %16, ptr noundef @.str.188, ptr noundef %17, ptr noundef %24)
  br label %26

26:                                               ; preds = %23, %11
  %27 = load ptr, ptr %5, align 8, !tbaa !67
  call void @llvm.lifetime.end.p0(i64 8, ptr %5) #12
  ret ptr %27
}