; Function Attrs: nounwind uwtable
define dso_local ptr @app_paramgen(ptr noundef %0, ptr noundef %1) local_unnamed_addr #0 {
  %3 = alloca ptr, align 8
  call void @llvm.lifetime.start.p0(i64 8, ptr nonnull %3) #27
  store ptr null, ptr %3, align 8, !tbaa !37
  %4 = tail call i32 @RAND_status() #27
  %.not = icmp eq i32 %4, 0
  br i1 %.not, label %5, label %8

5:                                                ; preds = %2
  %6 = load ptr, ptr @bio_err, align 8, !tbaa !26
  %7 = tail call i32 (ptr, ptr, ...) @BIO_printf(ptr noundef %6, ptr noundef nonnull @.str.187) #27
  br label %8

8:                                                ; preds = %5, %2
  %9 = call i32 @EVP_PKEY_paramgen(ptr noundef %0, ptr noundef nonnull %3) #27
  %10 = icmp slt i32 %9, 1
  br i1 %10, label %11, label %16

11:                                               ; preds = %8
  %12 = load ptr, ptr @bio_err, align 8, !tbaa !26
  %13 = call ptr @opt_getprog() #27
  %.not3 = icmp eq ptr %1, null
  %14 = select i1 %.not3, ptr @.str.186, ptr %1
  %15 = call i32 (ptr, ptr, ...) @BIO_printf(ptr noundef %12, ptr noundef nonnull @.str.188, ptr noundef %13, ptr noundef nonnull %14) #27
  br label %16

16:                                               ; preds = %11, %8
  %17 = load ptr, ptr %3, align 8, !tbaa !37
  call void @llvm.lifetime.end.p0(i64 8, ptr nonnull %3) #27
  ret ptr %17
}